target datalayout = "e-m:e-p270:32:32-p271:32:32-p272:64:64-i64:64-i128:128-f80:128-n8:16:32:64-S128"
target triple = "x86_64-pc-linux-gnu"

%"struct.Luau::CodeGen::CompilationOptions" = type { i32, %"struct.Luau::CodeGen::HostIrHooks", ptr }
%"struct.Luau::CodeGen::HostIrHooks" = type { ptr, ptr, ptr, ptr, ptr, ptr, ptr, ptr, ptr, ptr }
%"struct.Luau::CodeGen::CompilationResult" = type { i32, %"class.std::vector" }
%"class.std::vector" = type { %"struct.std::_Vector_base" }
%"struct.std::_Vector_base" = type { %"struct.std::_Vector_base<Luau::CodeGen::ProtoCompilationFailure, std::allocator<Luau::CodeGen::ProtoCompilationFailure>>::_Vector_impl" }
%"struct.std::_Vector_base<Luau::CodeGen::ProtoCompilationFailure, std::allocator<Luau::CodeGen::ProtoCompilationFailure>>::_Vector_impl" = type { %"struct.std::_Vector_base<Luau::CodeGen::ProtoCompilationFailure, std::allocator<Luau::CodeGen::ProtoCompilationFailure>>::_Vector_impl_data" }
%"struct.std::_Vector_base<Luau::CodeGen::ProtoCompilationFailure, std::allocator<Luau::CodeGen::ProtoCompilationFailure>>::_Vector_impl_data" = type { ptr, ptr, ptr }
%"struct.Luau::CodeGen::ProtoCompilationFailure" = type <{ i32, [4 x i8], %"class.std::__cxx11::basic_string", i32, [4 x i8] }>
%"class.std::__cxx11::basic_string" = type { %"struct.std::__cxx11::basic_string<char>::_Alloc_hider", i64, %union.anon }
%"struct.std::__cxx11::basic_string<char>::_Alloc_hider" = type { ptr }
%union.anon = type { i64, [8 x i8] }

$_ZN4Luau7CodeGen18CompilationOptionsC2Ev = comdat any

$_ZN4Luau7CodeGen17CompilationResultD2Ev = comdat any

$_ZN4Luau7CodeGen11HostIrHooksC2Ev = comdat any

$_ZNSt6vectorIN4Luau7CodeGen23ProtoCompilationFailureESaIS2_EED2Ev = comdat any

$_ZSt8_DestroyIPN4Luau7CodeGen23ProtoCompilationFailureES2_EvT_S4_RSaIT0_E = comdat any

$_ZNSt12_Vector_baseIN4Luau7CodeGen23ProtoCompilationFailureESaIS2_EE19_M_get_Tp_allocatorEv = comdat any

$__clang_call_terminate = comdat any

$_ZNSt12_Vector_baseIN4Luau7CodeGen23ProtoCompilationFailureESaIS2_EED2Ev = comdat any

$_ZSt8_DestroyIPN4Luau7CodeGen23ProtoCompilationFailureEEvT_S4_ = comdat any

$_ZNSt12_Destroy_auxILb0EE9__destroyIPN4Luau7CodeGen23ProtoCompilationFailureEEEvT_S6_ = comdat any

$_ZSt8_DestroyIN4Luau7CodeGen23ProtoCompilationFailureEEvPT_ = comdat any

$_ZN4Luau7CodeGen23ProtoCompilationFailureD2Ev = comdat any

$_ZNSt12_Vector_baseIN4Luau7CodeGen23ProtoCompilationFailureESaIS2_EE13_M_deallocateEPS2_m = comdat any

$_ZNSt12_Vector_baseIN4Luau7CodeGen23ProtoCompilationFailureESaIS2_EE12_Vector_implD2Ev = comdat any

$_ZNSt16allocator_traitsISaIN4Luau7CodeGen23ProtoCompilationFailureEEE10deallocateERS3_PS2_m = comdat any

$_ZNSt15__new_allocatorIN4Luau7CodeGen23ProtoCompilationFailureEE10deallocateEPS2_m = comdat any

$_ZNSaIN4Luau7CodeGen23ProtoCompilationFailureEED2Ev = comdat any

$_ZNSt15__new_allocatorIN4Luau7CodeGen23ProtoCompilationFailureEED2Ev = comdat any

; Function Attrs: mustprogress uwtable
define dso_local noundef i32 @_Z22luau_codegen_supportedv() #0 {
  %1 = call noundef zeroext i1 @_ZN4Luau7CodeGen11isSupportedEv()
  %2 = zext i1 %1 to i32
  ret i32 %2
}

declare noundef zeroext i1 @_ZN4Luau7CodeGen11isSupportedEv() #1

; Function Attrs: mustprogress uwtable
define dso_local void @_Z19luau_codegen_createP9lua_State(ptr noundef %0) #0 {
  %2 = alloca ptr, align 8
  store ptr %0, ptr %2, align 8
  %3 = load ptr, ptr %2, align 8
  call void @_ZN4Luau7CodeGen6createEP9lua_State(ptr noundef %3)
  ret void
}

declare void @_ZN4Luau7CodeGen6createEP9lua_State(ptr noundef) #1

; Function Attrs: mustprogress uwtable
define dso_local void @_Z20luau_codegen_compileP9lua_Statei(ptr noundef %0, i32 noundef %1) #0 {
  %3 = alloca ptr, align 8
  %4 = alloca i32, align 4
  %5 = alloca %"struct.Luau::CodeGen::CompilationOptions", align 8
  %6 = alloca %"struct.Luau::CodeGen::CompilationResult", align 8
  store ptr %0, ptr %3, align 8
  store i32 %1, ptr %4, align 4
  call void @_ZN4Luau7CodeGen18CompilationOptionsC2Ev(ptr noundef nonnull align 8 dereferenceable(96) %5) #6
  %7 = load ptr, ptr %3, align 8
  %8 = load i32, ptr %4, align 4
  call void @_ZN4Luau7CodeGen7compileEP9lua_StateiRKNS0_18CompilationOptionsEPNS0_16CompilationStatsE(ptr dead_on_unwind writable sret(%"struct.Luau::CodeGen::CompilationResult") align 8 %6, ptr noundef %7, i32 noundef %8, ptr noundef nonnull align 8 dereferenceable(96) %5, ptr noundef null)
  call void @_ZN4Luau7CodeGen17CompilationResultD2Ev(ptr noundef nonnull align 8 dereferenceable(32) %6) #6
  ret void
}

; Function Attrs: mustprogress nounwind uwtable
define linkonce_odr dso_local void @_ZN4Luau7CodeGen18CompilationOptionsC2Ev(ptr noundef nonnull align 8 dereferenceable(96) %0) unnamed_addr #2 comdat align 2 {
  %2 = alloca ptr, align 8
  store ptr %0, ptr %2, align 8
  %3 = load ptr, ptr %2, align 8
  %4 = getelementptr inbounds %"struct.Luau::CodeGen::CompilationOptions", ptr %3, i32 0, i32 0
  store i32 0, ptr %4, align 8
  %5 = getelementptr inbounds %"struct.Luau::CodeGen::CompilationOptions", ptr %3, i32 0, i32 1
  call void @_ZN4Luau7CodeGen11HostIrHooksC2Ev(ptr noundef nonnull align 8 dereferenceable(80) %5) #6
  %6 = getelementptr inbounds %"struct.Luau::CodeGen::CompilationOptions", ptr %3, i32 0, i32 2
  store ptr null, ptr %6, align 8
  ret void
}

declare void @_ZN4Luau7CodeGen7compileEP9lua_StateiRKNS0_18CompilationOptionsEPNS0_16CompilationStatsE(ptr dead_on_unwind writable sret(%"struct.Luau::CodeGen::CompilationResult") align 8, ptr noundef, i32 noundef, ptr noundef nonnull align 8 dereferenceable(96), ptr noundef) #1

; Function Attrs: mustprogress nounwind uwtable
define linkonce_odr dso_local void @_ZN4Luau7CodeGen17CompilationResultD2Ev(ptr noundef nonnull align 8 dereferenceable(32) %0) unnamed_addr #2 comdat align 2 {
  %2 = alloca ptr, align 8
  store ptr %0, ptr %2, align 8
  %3 = load ptr, ptr %2, align 8
  %4 = getelementptr inbounds %"struct.Luau::CodeGen::CompilationResult", ptr %3, i32 0, i32 1
  call void @_ZNSt6vectorIN4Luau7CodeGen23ProtoCompilationFailureESaIS2_EED2Ev(ptr noundef nonnull align 8 dereferenceable(24) %4) #6
  ret void
}

; Function Attrs: mustprogress nounwind uwtable
define linkonce_odr dso_local void @_ZN4Luau7CodeGen11HostIrHooksC2Ev(ptr noundef nonnull align 8 dereferenceable(80) %0) unnamed_addr #2 comdat align 2 {
  %2 = alloca ptr, align 8
  store ptr %0, ptr %2, align 8
  %3 = load ptr, ptr %2, align 8
  %4 = getelementptr inbounds %"struct.Luau::CodeGen::HostIrHooks", ptr %3, i32 0, i32 0
  store ptr null, ptr %4, align 8
  %5 = getelementptr inbounds %"struct.Luau::CodeGen::HostIrHooks", ptr %3, i32 0, i32 1
  store ptr null, ptr %5, align 8
  %6 = getelementptr inbounds %"struct.Luau::CodeGen::HostIrHooks", ptr %3, i32 0, i32 2
  store ptr null, ptr %6, align 8
  %7 = getelementptr inbounds %"struct.Luau::CodeGen::HostIrHooks", ptr %3, i32 0, i32 3
  store ptr null, ptr %7, align 8
  %8 = getelementptr inbounds %"struct.Luau::CodeGen::HostIrHooks", ptr %3, i32 0, i32 4
  store ptr null, ptr %8, align 8
  %9 = getelementptr inbounds %"struct.Luau::CodeGen::HostIrHooks", ptr %3, i32 0, i32 5
  store ptr null, ptr %9, align 8
  %10 = getelementptr inbounds %"struct.Luau::CodeGen::HostIrHooks", ptr %3, i32 0, i32 6
  store ptr null, ptr %10, align 8
  %11 = getelementptr inbounds %"struct.Luau::CodeGen::HostIrHooks", ptr %3, i32 0, i32 7
  store ptr null, ptr %11, align 8
  %12 = getelementptr inbounds %"struct.Luau::CodeGen::HostIrHooks", ptr %3, i32 0, i32 8
  store ptr null, ptr %12, align 8
  %13 = getelementptr inbounds %"struct.Luau::CodeGen::HostIrHooks", ptr %3, i32 0, i32 9
  store ptr null, ptr %13, align 8
  ret void
}

; Function Attrs: mustprogress nounwind uwtable
define linkonce_odr dso_local void @_ZNSt6vectorIN4Luau7CodeGen23ProtoCompilationFailureESaIS2_EED2Ev(ptr noundef nonnull align 8 dereferenceable(24) %0) unnamed_addr #2 comdat align 2 personality ptr @__gxx_personality_v0 {
  %2 = alloca ptr, align 8
  store ptr %0, ptr %2, align 8
  %3 = load ptr, ptr %2, align 8
  %4 = getelementptr inbounds %"struct.std::_Vector_base", ptr %3, i32 0, i32 0
  %5 = getelementptr inbounds %"struct.std::_Vector_base<Luau::CodeGen::ProtoCompilationFailure, std::allocator<Luau::CodeGen::ProtoCompilationFailure>>::_Vector_impl_data", ptr %4, i32 0, i32 0
  %6 = load ptr, ptr %5, align 8
  %7 = getelementptr inbounds %"struct.std::_Vector_base", ptr %3, i32 0, i32 0
  %8 = getelementptr inbounds %"struct.std::_Vector_base<Luau::CodeGen::ProtoCompilationFailure, std::allocator<Luau::CodeGen::ProtoCompilationFailure>>::_Vector_impl_data", ptr %7, i32 0, i32 1
  %9 = load ptr, ptr %8, align 8
  %10 = call noundef nonnull align 1 dereferenceable(1) ptr @_ZNSt12_Vector_baseIN4Luau7CodeGen23ProtoCompilationFailureESaIS2_EE19_M_get_Tp_allocatorEv(ptr noundef nonnull align 8 dereferenceable(24) %3) #6
  invoke void @_ZSt8_DestroyIPN4Luau7CodeGen23ProtoCompilationFailureES2_EvT_S4_RSaIT0_E(ptr noundef %6, ptr noundef %9, ptr noundef nonnull align 1 dereferenceable(1) %10)
          to label %11 unwind label %12

11:                                               ; preds = %1
  call void @_ZNSt12_Vector_baseIN4Luau7CodeGen23ProtoCompilationFailureESaIS2_EED2Ev(ptr noundef nonnull align 8 dereferenceable(24) %3) #6
  ret void

12:                                               ; preds = %1
  %13 = landingpad { ptr, i32 }
          catch ptr null
  %14 = extractvalue { ptr, i32 } %13, 0
  call void @__clang_call_terminate(ptr %14) #7
  unreachable
}

; Function Attrs: mustprogress uwtable
define linkonce_odr dso_local void @_ZSt8_DestroyIPN4Luau7CodeGen23ProtoCompilationFailureES2_EvT_S4_RSaIT0_E(ptr noundef %0, ptr noundef %1, ptr noundef nonnull align 1 dereferenceable(1) %2) #0 comdat {
  %4 = alloca ptr, align 8
  %5 = alloca ptr, align 8
  %6 = alloca ptr, align 8
  store ptr %0, ptr %4, align 8
  store ptr %1, ptr %5, align 8
  store ptr %2, ptr %6, align 8
  %7 = load ptr, ptr %4, align 8
  %8 = load ptr, ptr %5, align 8
  call void @_ZSt8_DestroyIPN4Luau7CodeGen23ProtoCompilationFailureEEvT_S4_(ptr noundef %7, ptr noundef %8)
  ret void
}

; Function Attrs: mustprogress nounwind uwtable
define linkonce_odr dso_local noundef nonnull align 1 dereferenceable(1) ptr @_ZNSt12_Vector_baseIN4Luau7CodeGen23ProtoCompilationFailureESaIS2_EE19_M_get_Tp_allocatorEv(ptr noundef nonnull align 8 dereferenceable(24) %0) #2 comdat align 2 {
  %2 = alloca ptr, align 8
  store ptr %0, ptr %2, align 8
  %3 = load ptr, ptr %2, align 8
  %4 = getelementptr inbounds %"struct.std::_Vector_base", ptr %3, i32 0, i32 0
  ret ptr %4
}

declare i32 @__gxx_personality_v0(...)

; Function Attrs: noreturn nounwind uwtable
define linkonce_odr hidden void @__clang_call_terminate(ptr noundef %0) #3 comdat {
  %2 = call ptr @__cxa_begin_catch(ptr %0) #6
  call void @_ZSt9terminatev() #7
  unreachable
}

declare ptr @__cxa_begin_catch(ptr)

declare void @_ZSt9terminatev()

; Function Attrs: mustprogress nounwind uwtable
define linkonce_odr dso_local void @_ZNSt12_Vector_baseIN4Luau7CodeGen23ProtoCompilationFailureESaIS2_EED2Ev(ptr noundef nonnull align 8 dereferenceable(24) %0) unnamed_addr #2 comdat align 2 personality ptr @__gxx_personality_v0 {
  %2 = alloca ptr, align 8
  store ptr %0, ptr %2, align 8
  %3 = load ptr, ptr %2, align 8
  %4 = getelementptr inbounds %"struct.std::_Vector_base", ptr %3, i32 0, i32 0
  %5 = getelementptr inbounds %"struct.std::_Vector_base<Luau::CodeGen::ProtoCompilationFailure, std::allocator<Luau::CodeGen::ProtoCompilationFailure>>::_Vector_impl_data", ptr %4, i32 0, i32 0
  %6 = load ptr, ptr %5, align 8
  %7 = getelementptr inbounds %"struct.std::_Vector_base", ptr %3, i32 0, i32 0
  %8 = getelementptr inbounds %"struct.std::_Vector_base<Luau::CodeGen::ProtoCompilationFailure, std::allocator<Luau::CodeGen::ProtoCompilationFailure>>::_Vector_impl_data", ptr %7, i32 0, i32 2
  %9 = load ptr, ptr %8, align 8
  %10 = getelementptr inbounds %"struct.std::_Vector_base", ptr %3, i32 0, i32 0
  %11 = getelementptr inbounds %"struct.std::_Vector_base<Luau::CodeGen::ProtoCompilationFailure, std::allocator<Luau::CodeGen::ProtoCompilationFailure>>::_Vector_impl_data", ptr %10, i32 0, i32 0
  %12 = load ptr, ptr %11, align 8
  %13 = ptrtoint ptr %9 to i64
  %14 = ptrtoint ptr %12 to i64
  %15 = sub i64 %13, %14
  %16 = sdiv exact i64 %15, 48
  invoke void @_ZNSt12_Vector_baseIN4Luau7CodeGen23ProtoCompilationFailureESaIS2_EE13_M_deallocateEPS2_m(ptr noundef nonnull align 8 dereferenceable(24) %3, ptr noundef %6, i64 noundef %16)
          to label %17 unwind label %19

17:                                               ; preds = %1
  %18 = getelementptr inbounds %"struct.std::_Vector_base", ptr %3, i32 0, i32 0
  call void @_ZNSt12_Vector_baseIN4Luau7CodeGen23ProtoCompilationFailureESaIS2_EE12_Vector_implD2Ev(ptr noundef nonnull align 8 dereferenceable(24) %18) #6
  ret void

19:                                               ; preds = %1
  %20 = landingpad { ptr, i32 }
          catch ptr null
  %21 = extractvalue { ptr, i32 } %20, 0
  call void @__clang_call_terminate(ptr %21) #7
  unreachable
}

; Function Attrs: mustprogress uwtable
define linkonce_odr dso_local void @_ZSt8_DestroyIPN4Luau7CodeGen23ProtoCompilationFailureEEvT_S4_(ptr noundef %0, ptr noundef %1) #0 comdat {
  %3 = alloca ptr, align 8
  %4 = alloca ptr, align 8
  store ptr %0, ptr %3, align 8
  store ptr %1, ptr %4, align 8
  %5 = load ptr, ptr %3, align 8
  %6 = load ptr, ptr %4, align 8
  call void @_ZNSt12_Destroy_auxILb0EE9__destroyIPN4Luau7CodeGen23ProtoCompilationFailureEEEvT_S6_(ptr noundef %5, ptr noundef %6)
  ret void
}

; Function Attrs: mustprogress uwtable
define linkonce_odr dso_local void @_ZNSt12_Destroy_auxILb0EE9__destroyIPN4Luau7CodeGen23ProtoCompilationFailureEEEvT_S6_(ptr noundef %0, ptr noundef %1) #0 comdat align 2 {
  %3 = alloca ptr, align 8
  %4 = alloca ptr, align 8
  store ptr %0, ptr %3, align 8
  store ptr %1, ptr %4, align 8
  br label %5

5:                                                ; preds = %11, %2
  %6 = load ptr, ptr %3, align 8
  %7 = load ptr, ptr %4, align 8
  %8 = icmp ne ptr %6, %7
  br i1 %8, label %9, label %14

9:                                                ; preds = %5
  %10 = load ptr, ptr %3, align 8
  call void @_ZSt8_DestroyIN4Luau7CodeGen23ProtoCompilationFailureEEvPT_(ptr noundef %10)
  br label %11

11:                                               ; preds = %9
  %12 = load ptr, ptr %3, align 8
  %13 = getelementptr inbounds %"struct.Luau::CodeGen::ProtoCompilationFailure", ptr %12, i32 1
  store ptr %13, ptr %3, align 8
  br label %5, !llvm.loop !5

14:                                               ; preds = %5
  ret void
}

; Function Attrs: mustprogress nounwind uwtable
define linkonce_odr dso_local void @_ZSt8_DestroyIN4Luau7CodeGen23ProtoCompilationFailureEEvPT_(ptr noundef %0) #2 comdat {
  %2 = alloca ptr, align 8
  store ptr %0, ptr %2, align 8
  %3 = load ptr, ptr %2, align 8
  call void @_ZN4Luau7CodeGen23ProtoCompilationFailureD2Ev(ptr noundef nonnull align 8 dereferenceable(44) %3) #6
  ret void
}

; Function Attrs: mustprogress nounwind uwtable
define linkonce_odr dso_local void @_ZN4Luau7CodeGen23ProtoCompilationFailureD2Ev(ptr noundef nonnull align 8 dereferenceable(44) %0) unnamed_addr #2 comdat align 2 {
  %2 = alloca ptr, align 8
  store ptr %0, ptr %2, align 8
  %3 = load ptr, ptr %2, align 8
  %4 = getelementptr inbounds %"struct.Luau::CodeGen::ProtoCompilationFailure", ptr %3, i32 0, i32 2
  call void @_ZNSt7__cxx1112basic_stringIcSt11char_traitsIcESaIcEED1Ev(ptr noundef nonnull align 8 dereferenceable(32) %4) #6
  ret void
}

; Function Attrs: nounwind
declare void @_ZNSt7__cxx1112basic_stringIcSt11char_traitsIcESaIcEED1Ev(ptr noundef nonnull align 8 dereferenceable(32)) unnamed_addr #4

; Function Attrs: mustprogress uwtable
define linkonce_odr dso_local void @_ZNSt12_Vector_baseIN4Luau7CodeGen23ProtoCompilationFailureESaIS2_EE13_M_deallocateEPS2_m(ptr noundef nonnull align 8 dereferenceable(24) %0, ptr noundef %1, i64 noundef %2) #0 comdat align 2 {
  %4 = alloca ptr, align 8
  %5 = alloca ptr, align 8
  %6 = alloca i64, align 8
  store ptr %0, ptr %4, align 8
  store ptr %1, ptr %5, align 8
  store i64 %2, ptr %6, align 8
  %7 = load ptr, ptr %4, align 8
  %8 = load ptr, ptr %5, align 8
  %9 = icmp ne ptr %8, null
  br i1 %9, label %10, label %14

10:                                               ; preds = %3
  %11 = getelementptr inbounds %"struct.std::_Vector_base", ptr %7, i32 0, i32 0
  %12 = load ptr, ptr %5, align 8
  %13 = load i64, ptr %6, align 8
  call void @_ZNSt16allocator_traitsISaIN4Luau7CodeGen23ProtoCompilationFailureEEE10deallocateERS3_PS2_m(ptr noundef nonnull align 1 dereferenceable(1) %11, ptr noundef %12, i64 noundef %13)
  br label %14

14:                                               ; preds = %10, %3
  ret void
}

; Function Attrs: mustprogress nounwind uwtable
define linkonce_odr dso_local void @_ZNSt12_Vector_baseIN4Luau7CodeGen23ProtoCompilationFailureESaIS2_EE12_Vector_implD2Ev(ptr noundef nonnull align 8 dereferenceable(24) %0) unnamed_addr #2 comdat align 2 {
  %2 = alloca ptr, align 8
  store ptr %0, ptr %2, align 8
  %3 = load ptr, ptr %2, align 8
  call void @_ZNSaIN4Luau7CodeGen23ProtoCompilationFailureEED2Ev(ptr noundef nonnull align 1 dereferenceable(1) %3) #6
  ret void
}

; Function Attrs: mustprogress uwtable
define linkonce_odr dso_local void @_ZNSt16allocator_traitsISaIN4Luau7CodeGen23ProtoCompilationFailureEEE10deallocateERS3_PS2_m(ptr noundef nonnull align 1 dereferenceable(1) %0, ptr noundef %1, i64 noundef %2) #0 comdat align 2 {
  %4 = alloca ptr, align 8
  %5 = alloca ptr, align 8
  %6 = alloca i64, align 8
  store ptr %0, ptr %4, align 8
  store ptr %1, ptr %5, align 8
  store i64 %2, ptr %6, align 8
  %7 = load ptr, ptr %4, align 8
  %8 = load ptr, ptr %5, align 8
  %9 = load i64, ptr %6, align 8
  call void @_ZNSt15__new_allocatorIN4Luau7CodeGen23ProtoCompilationFailureEE10deallocateEPS2_m(ptr noundef nonnull align 1 dereferenceable(1) %7, ptr noundef %8, i64 noundef %9)
  ret void
}

; Function Attrs: mustprogress nounwind uwtable
define linkonce_odr dso_local void @_ZNSt15__new_allocatorIN4Luau7CodeGen23ProtoCompilationFailureEE10deallocateEPS2_m(ptr noundef nonnull align 1 dereferenceable(1) %0, ptr noundef %1, i64 noundef %2) #2 comdat align 2 {
  %4 = alloca ptr, align 8
  %5 = alloca ptr, align 8
  %6 = alloca i64, align 8
  store ptr %0, ptr %4, align 8
  store ptr %1, ptr %5, align 8
  store i64 %2, ptr %6, align 8
  %7 = load ptr, ptr %5, align 8
  %8 = load i64, ptr %6, align 8
  %9 = mul i64 %8, 48
  call void @_ZdlPvm(ptr noundef %7, i64 noundef %9) #8
  ret void
}

; Function Attrs: nobuiltin nounwind
declare void @_ZdlPvm(ptr noundef, i64 noundef) #5

; Function Attrs: mustprogress nounwind uwtable
define linkonce_odr dso_local void @_ZNSaIN4Luau7CodeGen23ProtoCompilationFailureEED2Ev(ptr noundef nonnull align 1 dereferenceable(1) %0) unnamed_addr #2 comdat align 2 {
  %2 = alloca ptr, align 8
  store ptr %0, ptr %2, align 8
  %3 = load ptr, ptr %2, align 8
  call void @_ZNSt15__new_allocatorIN4Luau7CodeGen23ProtoCompilationFailureEED2Ev(ptr noundef nonnull align 1 dereferenceable(1) %3) #6
  ret void
}

; Function Attrs: mustprogress nounwind uwtable
define linkonce_odr dso_local void @_ZNSt15__new_allocatorIN4Luau7CodeGen23ProtoCompilationFailureEED2Ev(ptr noundef nonnull align 1 dereferenceable(1) %0) unnamed_addr #2 comdat align 2 {
  %2 = alloca ptr, align 8
  store ptr %0, ptr %2, align 8
  ret void
}


!llvm.module.flags = !{!0, !1, !2, !3, !4}

!0 = !{i32 1, !"wchar_size", i32 4}
!1 = !{i32 8, !"PIC Level", i32 2}
!2 = !{i32 7, !"PIE Level", i32 2}
!3 = !{i32 7, !"uwtable", i32 2}
!4 = !{i32 7, !"frame-pointer", i32 2}
!5 = distinct !{!5, !6}
!6 = !{!"llvm.loop.mustprogress"}
