; ModuleID = 'bench/luau/original/lcodegen.cpp.ll'
source_filename = "bench/luau/original/lcodegen.cpp.ll"
target datalayout = "e-m:e-p270:32:32-p271:32:32-p272:64:64-i64:64-i128:128-f80:128-n8:16:32:64-S128"
target triple = "x86_64-pc-linux-gnu"

%"struct.Luau::CodeGen::CompilationOptions" = type { i32, %"struct.Luau::CodeGen::HostIrHooks", ptr }
%"struct.Luau::CodeGen::HostIrHooks" = type { ptr, ptr, ptr, ptr, ptr, ptr, ptr, ptr, ptr, ptr }
%"struct.Luau::CodeGen::CompilationResult" = type { i32, %"class.std::vector" }
%"class.std::vector" = type { %"struct.std::_Vector_base" }
%"struct.std::_Vector_base" = type { %"struct.std::_Vector_base<Luau::CodeGen::ProtoCompilationFailure, std::allocator<Luau::CodeGen::ProtoCompilationFailure>>::_Vector_impl" }
%"struct.std::_Vector_base<Luau::CodeGen::ProtoCompilationFailure, std::allocator<Luau::CodeGen::ProtoCompilationFailure>>::_Vector_impl" = type { %"struct.std::_Vector_base<Luau::CodeGen::ProtoCompilationFailure, std::allocator<Luau::CodeGen::ProtoCompilationFailure>>::_Vector_impl_data" }
%"struct.std::_Vector_base<Luau::CodeGen::ProtoCompilationFailure, std::allocator<Luau::CodeGen::ProtoCompilationFailure>>::_Vector_impl_data" = type { ptr, ptr, ptr }

; Function Attrs: mustprogress uwtable
define dso_local noundef range(i32 0, 2) i32 @_Z22luau_codegen_supportedv() local_unnamed_addr #0 {
  %1 = tail call noundef zeroext i1 @_ZN4Luau7CodeGen11isSupportedEv()
  %2 = zext i1 %1 to i32
  ret i32 %2
}

declare noundef zeroext i1 @_ZN4Luau7CodeGen11isSupportedEv() local_unnamed_addr #1

; Function Attrs: mustprogress uwtable
define dso_local void @_Z19luau_codegen_createP9lua_State(ptr noundef %0) local_unnamed_addr #0 {
  tail call void @_ZN4Luau7CodeGen6createEP9lua_State(ptr noundef %0)
  ret void
}

declare void @_ZN4Luau7CodeGen6createEP9lua_State(ptr noundef) local_unnamed_addr #1

; Function Attrs: mustprogress uwtable
define dso_local void @_Z20luau_codegen_compileP9lua_Statei(ptr noundef %0, i32 noundef %1) local_unnamed_addr #0 personality ptr @__gxx_personality_v0 {
  %3 = alloca %"struct.Luau::CodeGen::CompilationOptions", align 8
  %4 = alloca %"struct.Luau::CodeGen::CompilationResult", align 8
  store i32 0, ptr %3, align 8
  %5 = getelementptr inbounds i8, ptr %3, i64 8
  call void @llvm.memset.p0.i64(ptr noundef nonnull align 8 dereferenceable(88) %5, i8 0, i64 88, i1 false)
  call void @_ZN4Luau7CodeGen7compileEP9lua_StateiRKNS0_18CompilationOptionsEPNS0_16CompilationStatsE(ptr dead_on_unwind nonnull writable sret(%"struct.Luau::CodeGen::CompilationResult") align 8 %4, ptr noundef %0, i32 noundef %1, ptr noundef nonnull align 8 dereferenceable(96) %3, ptr noundef null)
  %6 = getelementptr inbounds i8, ptr %4, i64 8
  %7 = load ptr, ptr %6, align 8
  %8 = getelementptr inbounds i8, ptr %4, i64 16
  %9 = load ptr, ptr %8, align 8
  %.not4.i.i.i.i.i = icmp eq ptr %7, %9
  br i1 %.not4.i.i.i.i.i, label %_ZSt8_DestroyIPN4Luau7CodeGen23ProtoCompilationFailureES2_EvT_S4_RSaIT0_E.exit.i.i, label %.lr.ph.i.i.i.i.i

.lr.ph.i.i.i.i.i:                                 ; preds = %2, %.lr.ph.i.i.i.i.i
  %.05.i.i.i.i.i = phi ptr [ %11, %.lr.ph.i.i.i.i.i ], [ %7, %2 ]
  %10 = getelementptr inbounds i8, ptr %.05.i.i.i.i.i, i64 8
  call void @_ZNSt7__cxx1112basic_stringIcSt11char_traitsIcESaIcEED1Ev(ptr noundef nonnull align 8 dereferenceable(32) %10) #5
  %11 = getelementptr inbounds i8, ptr %.05.i.i.i.i.i, i64 48
  %.not.i.i.i.i.i = icmp eq ptr %11, %9
  br i1 %.not.i.i.i.i.i, label %_ZSt8_DestroyIPN4Luau7CodeGen23ProtoCompilationFailureES2_EvT_S4_RSaIT0_E.exitthread-pre-split.i.i, label %.lr.ph.i.i.i.i.i, !llvm.loop !5

_ZSt8_DestroyIPN4Luau7CodeGen23ProtoCompilationFailureES2_EvT_S4_RSaIT0_E.exitthread-pre-split.i.i: ; preds = %.lr.ph.i.i.i.i.i
  %.pr.i.i = load ptr, ptr %6, align 8
  br label %_ZSt8_DestroyIPN4Luau7CodeGen23ProtoCompilationFailureES2_EvT_S4_RSaIT0_E.exit.i.i

_ZSt8_DestroyIPN4Luau7CodeGen23ProtoCompilationFailureES2_EvT_S4_RSaIT0_E.exit.i.i: ; preds = %_ZSt8_DestroyIPN4Luau7CodeGen23ProtoCompilationFailureES2_EvT_S4_RSaIT0_E.exitthread-pre-split.i.i, %2
  %12 = phi ptr [ %.pr.i.i, %_ZSt8_DestroyIPN4Luau7CodeGen23ProtoCompilationFailureES2_EvT_S4_RSaIT0_E.exitthread-pre-split.i.i ], [ %7, %2 ]
  %.not.i.i.i.i = icmp eq ptr %12, null
  br i1 %.not.i.i.i.i, label %_ZN4Luau7CodeGen17CompilationResultD2Ev.exit, label %13

13:                                               ; preds = %_ZSt8_DestroyIPN4Luau7CodeGen23ProtoCompilationFailureES2_EvT_S4_RSaIT0_E.exit.i.i
  %14 = getelementptr inbounds i8, ptr %4, i64 24
  %15 = load ptr, ptr %14, align 8
  %16 = ptrtoint ptr %15 to i64
  %17 = ptrtoint ptr %12 to i64
  %18 = sub i64 %16, %17
  call void @_ZdlPvm(ptr noundef nonnull %12, i64 noundef %18) #6
  br label %_ZN4Luau7CodeGen17CompilationResultD2Ev.exit

_ZN4Luau7CodeGen17CompilationResultD2Ev.exit:     ; preds = %_ZSt8_DestroyIPN4Luau7CodeGen23ProtoCompilationFailureES2_EvT_S4_RSaIT0_E.exit.i.i, %13
  ret void
}

declare void @_ZN4Luau7CodeGen7compileEP9lua_StateiRKNS0_18CompilationOptionsEPNS0_16CompilationStatsE(ptr dead_on_unwind writable sret(%"struct.Luau::CodeGen::CompilationResult") align 8, ptr noundef, i32 noundef, ptr noundef nonnull align 8 dereferenceable(96), ptr noundef) local_unnamed_addr #1

declare i32 @__gxx_personality_v0(...)

; Function Attrs: nounwind
declare void @_ZNSt7__cxx1112basic_stringIcSt11char_traitsIcESaIcEED1Ev(ptr noundef nonnull align 8 dereferenceable(32)) unnamed_addr #2

; Function Attrs: nobuiltin nounwind
declare void @_ZdlPvm(ptr noundef, i64 noundef) local_unnamed_addr #3

; Function Attrs: nocallback nofree nounwind willreturn memory(argmem: write)
declare void @llvm.memset.p0.i64(ptr nocapture writeonly, i8, i64, i1 immarg) #4


!llvm.module.flags = !{!0, !1, !2, !3, !4}

!0 = !{i32 1, !"wchar_size", i32 4}
!1 = !{i32 8, !"PIC Level", i32 2}
!2 = !{i32 7, !"PIE Level", i32 2}
!3 = !{i32 7, !"uwtable", i32 2}
!4 = !{i32 7, !"frame-pointer", i32 2}
!5 = distinct !{!5, !6}
!6 = !{!"llvm.loop.mustprogress"}
